target datalayout = "e-m:e-p270:32:32-p271:32:32-p272:64:64-i64:64-i128:128-f80:128-n8:16:32:64-S128"
target triple = "x86_64-unknown-linux-gnu"

@.str = private unnamed_addr constant [17 x i8] c"BLEND_TESS_P2T: \00", align 1
@.str.1 = private unnamed_addr constant [47 x i8] c"Expected more than 4 vertices for tessellation\00", align 1
@_ZTI17DeadlyImportError = linkonce_odr constant { ptr, ptr, ptr } { ptr getelementptr inbounds (ptr, ptr @_ZTVN10__cxxabiv120__si_class_type_infoE, i64 2), ptr @_ZTS17DeadlyImportError, ptr @_ZTI15DeadlyErrorBase }, comdat, align 8

; Function Attrs: mustprogress nounwind uwtable
define hidden noundef ptr @_ZN6Assimp12LogFunctionsINS_21BlenderTessellatorP2TEE6PrefixEv() #0 align 2 {
entry:
  ret ptr @.str
}

; Function Attrs: mustprogress uwtable
define linkonce_odr hidden void @_ZN6Assimp12LogFunctionsINS_21BlenderTessellatorP2TEE14ThrowExceptionIJRA47_KcEEEvDpOT_(ptr noundef nonnull align 1 dereferenceable(47) %args) #2 comdat align 2 personality ptr @__gxx_personality_v0 {
entry:
  %args.addr = alloca ptr, align 8
  %ref.tmp = alloca ptr, align 8
  %exn.slot = alloca ptr, align 8
  %ehselector.slot = alloca i32, align 4
  store ptr %args, ptr %args.addr, align 8
  %exception = call ptr @__cxa_allocate_exception(i64 16) #14
  %call = call noundef ptr @_ZN6Assimp12LogFunctionsINS_21BlenderTessellatorP2TEE6PrefixEv()
  store ptr %call, ptr %ref.tmp, align 8
  %0 = load ptr, ptr %args.addr, align 8
  invoke void @_ZN17DeadlyImportErrorC2IJPKcRA47_S1_EEEDpOT_(ptr noundef nonnull align 8 dereferenceable(16) %exception, ptr noundef nonnull align 8 dereferenceable(8) %ref.tmp, ptr noundef nonnull align 1 dereferenceable(47) %0)
          to label %invoke.cont unwind label %lpad

invoke.cont:                                      ; preds = %entry
  call void @__cxa_throw(ptr %exception, ptr @_ZTI17DeadlyImportError, ptr @_ZN17DeadlyImportErrorD2Ev) #15
  unreachable

lpad:                                             ; preds = %entry
  %1 = landingpad { ptr, i32 }
          cleanup
  %2 = extractvalue { ptr, i32 } %1, 0
  store ptr %2, ptr %exn.slot, align 8
  %3 = extractvalue { ptr, i32 } %1, 1
  store i32 %3, ptr %ehselector.slot, align 4
  call void @__cxa_free_exception(ptr %exception) #14
  br label %eh.resume

eh.resume:                                        ; preds = %lpad
  %exn = load ptr, ptr %exn.slot, align 8
  %sel = load i32, ptr %ehselector.slot, align 4
  %lpad.val = insertvalue { ptr, i32 } poison, ptr %exn, 0
  %lpad.val1 = insertvalue { ptr, i32 } %lpad.val, i32 %sel, 1
  resume { ptr, i32 } %lpad.val1
}

; Function Attrs: mustprogress uwtable
define hidden void @_ZN6Assimp21BlenderTessellatorP2T17AssertVertexCountEi(ptr noundef nonnull align 8 dereferenceable(8) %this, i32 noundef %vertexCount) #2 align 2 {
entry:
  %this.addr = alloca ptr, align 8
  %vertexCount.addr = alloca i32, align 4
  store ptr %this, ptr %this.addr, align 8
  store i32 %vertexCount, ptr %vertexCount.addr, align 4
  %0 = load i32, ptr %vertexCount.addr, align 4
  %cmp = icmp sle i32 %0, 4
  br i1 %cmp, label %if.then, label %if.end

if.then:                                          ; preds = %entry
  call void @_ZN6Assimp12LogFunctionsINS_21BlenderTessellatorP2TEE14ThrowExceptionIJRA47_KcEEEvDpOT_(ptr noundef nonnull align 1 dereferenceable(47) @.str.1)
  br label %if.end

if.end:                                           ; preds = %if.then, %entry
  ret void
}