; Function Attrs: mustprogress uwtable
define hidden void @_ZN6Assimp21BlenderTessellatorP2T17AssertVertexCountEi(ptr nocapture noundef nonnull readnone align 8 dereferenceable(8) %this, i32 noundef %vertexCount) local_unnamed_addr #3 align 2 personality ptr @__gxx_personality_v0 {
entry:
  %ref.tmp.i = alloca ptr, align 8
  %cmp = icmp slt i32 %vertexCount, 5
  br i1 %cmp, label %if.then, label %if.end

if.then:                                          ; preds = %entry
  call void @llvm.lifetime.start.p0(i64 8, ptr nonnull %ref.tmp.i)
  %exception.i = tail call ptr @__cxa_allocate_exception(i64 16) #22
  store ptr @.str, ptr %ref.tmp.i, align 8
  invoke void @_ZN17DeadlyImportErrorC2IJPKcRA47_S1_EEEDpOT_(ptr noundef nonnull align 8 dereferenceable(16) %exception.i, ptr noundef nonnull align 8 dereferenceable(8) %ref.tmp.i, ptr noundef nonnull align 1 dereferenceable(47) @.str.1)
          to label %invoke.cont.i unwind label %lpad.i

invoke.cont.i:                                    ; preds = %if.then
  call void @__cxa_throw(ptr nonnull %exception.i, ptr nonnull @_ZTI17DeadlyImportError, ptr nonnull @_ZN17DeadlyImportErrorD2Ev) #23
  unreachable

lpad.i:                                           ; preds = %if.then
  %0 = landingpad { ptr, i32 }
          cleanup
  call void @__cxa_free_exception(ptr %exception.i) #22
  resume { ptr, i32 } %0

if.end:                                           ; preds = %entry
  ret void
}